target datalayout = "e-m:e-p270:32:32-p271:32:32-p272:64:64-i64:64-i128:128-f80:128-n8:16:32:64-S128"
target triple = "x86_64-pc-linux-gnu"

%struct._value_string_ext = type { ptr, i32, i32, ptr, ptr }

@hf_njack_tlv_type = internal global i32 0, align 4
@njack_cmd_vals_ext = internal global %struct._value_string_ext { ptr @_try_val_to_str_ext_init, i32 0, i32 33, ptr @njack_cmd_vals, ptr @.str.55 }, align 8
@hf_njack_tlv_length = internal global i32 0, align 4
@hf_njack_tlv_data = internal global i32 0, align 4
@hf_njack_tlv_version = internal global i32 0, align 4
@hf_njack_tlv_snmpwrite = internal global i32 0, align 4
@hf_njack_tlv_dhcpcontrol = internal global i32 0, align 4
@hf_njack_tlv_devicemac = internal global i32 0, align 4
@hf_njack_tlv_typeip = internal global i32 0, align 4
@hf_njack_tlv_typestring = internal global i32 0, align 4
@hf_njack_tlv_scheduling = internal global i32 0, align 4
@hf_njack_tlv_addtagscheme = internal global i32 0, align 4
@hf_njack_tlv_portingressmode = internal global i32 0, align 4
@hf_njack_tlv_maxframesize = internal global i32 0, align 4
@hf_njack_tlv_countermode = internal global i32 0, align 4
@hf_njack_tlv_powerforwarding = internal global i32 0, align 4
@ett_njack_tlv_header = internal global i32 0, align 4
@.str.130 = private unnamed_addr constant [19 x i8] c"T %02x, L %02x: %s\00", align 1
@.str.131 = private unnamed_addr constant [8 x i8] c"Unknown\00", align 1

; Function Attrs: null_pointer_is_valid sspstrong uwtable
define internal i32 @dissect_portsettings(ptr noundef %0, ptr noundef %1, i32 noundef %2) #0 {
  %4 = alloca ptr, align 8
  %5 = alloca ptr, align 8
  %6 = alloca i32, align 4
  store ptr %0, ptr %4, align 8
  store ptr %1, ptr %5, align 8
  store i32 %2, ptr %6, align 4
  %7 = load ptr, ptr %5, align 8
  %8 = load i32, ptr @hf_njack_tlv_data, align 4
  %9 = load ptr, ptr %4, align 8
  %10 = load i32, ptr %6, align 4
  %11 = call ptr @proto_tree_add_item(ptr noundef %7, i32 noundef %8, ptr noundef %9, i32 noundef %10, i32 noundef 8, i32 noundef 0)
  %12 = load i32, ptr %6, align 4
  ret i32 %12
}

; Function Attrs: null_pointer_is_valid sspstrong uwtable
define internal i32 @dissect_tlvs(ptr noundef %0, ptr noundef %1, i32 noundef %2) #0 {
  %4 = alloca ptr, align 8
  %5 = alloca ptr, align 8
  %6 = alloca i32, align 4
  %7 = alloca i8, align 1
  %8 = alloca i8, align 1
  %9 = alloca ptr, align 8
  store ptr %0, ptr %4, align 8
  store ptr %1, ptr %5, align 8
  store i32 %2, ptr %6, align 4
  call void @llvm.lifetime.start.p0(i64 1, ptr %7) #3
  call void @llvm.lifetime.start.p0(i64 1, ptr %8) #3
  call void @llvm.lifetime.start.p0(i64 8, ptr %9) #3
  br label %10

10:                                               ; preds = %204, %29, %3
  %11 = load ptr, ptr %4, align 8
  %12 = load i32, ptr %6, align 4
  %13 = call zeroext i8 @tvb_get_uint8(ptr noundef %11, i32 noundef %12)
  store i8 %13, ptr %7, align 1
  %14 = load i8, ptr %7, align 1
  %15 = zext i8 %14 to i32
  %16 = icmp eq i32 %15, 255
  br i1 %16, label %17, label %25

17:                                               ; preds = %10
  %18 = load ptr, ptr %5, align 8
  %19 = load i32, ptr @hf_njack_tlv_type, align 4
  %20 = load ptr, ptr %4, align 8
  %21 = load i32, ptr %6, align 4
  %22 = call ptr @proto_tree_add_item(ptr noundef %18, i32 noundef %19, ptr noundef %20, i32 noundef %21, i32 noundef 1, i32 noundef 0)
  %23 = load i32, ptr %6, align 4
  %24 = add i32 %23, 1
  store i32 %24, ptr %6, align 4
  br label %205

25:                                               ; preds = %10
  %26 = load i8, ptr %7, align 1
  %27 = zext i8 %26 to i32
  %28 = icmp eq i32 %27, 99
  br i1 %28, label %29, label %37

29:                                               ; preds = %25
  %30 = load ptr, ptr %5, align 8
  %31 = load i32, ptr @hf_njack_tlv_type, align 4
  %32 = load ptr, ptr %4, align 8
  %33 = load i32, ptr %6, align 4
  %34 = call ptr @proto_tree_add_item(ptr noundef %30, i32 noundef %31, ptr noundef %32, i32 noundef %33, i32 noundef 1, i32 noundef 0)
  %35 = load i32, ptr %6, align 4
  %36 = add i32 %35, 1
  store i32 %36, ptr %6, align 4
  br label %10

37:                                               ; preds = %25
  %38 = load ptr, ptr %4, align 8
  %39 = load i32, ptr %6, align 4
  %40 = add i32 %39, 1
  %41 = call zeroext i8 @tvb_get_uint8(ptr noundef %38, i32 noundef %40)
  store i8 %41, ptr %8, align 1
  %42 = load ptr, ptr %5, align 8
  %43 = load ptr, ptr %4, align 8
  %44 = load i32, ptr %6, align 4
  %45 = load i8, ptr %8, align 1
  %46 = zext i8 %45 to i32
  %47 = add i32 %46, 2
  %48 = load i32, ptr @ett_njack_tlv_header, align 4
  %49 = load i8, ptr %7, align 1
  %50 = zext i8 %49 to i32
  %51 = load i8, ptr %8, align 1
  %52 = zext i8 %51 to i32
  %53 = load i8, ptr %7, align 1
  %54 = zext i8 %53 to i32
  %55 = call ptr @val_to_str_ext_const(i32 noundef %54, ptr noundef @njack_cmd_vals_ext, ptr noundef @.str.131)
  %56 = call ptr (ptr, ptr, i32, i32, i32, ptr, ptr, ...) @proto_tree_add_subtree_format(ptr noundef %42, ptr noundef %43, i32 noundef %44, i32 noundef %47, i32 noundef %48, ptr noundef null, ptr noundef @.str.130, i32 noundef %50, i32 noundef %52, ptr noundef %55)
  store ptr %56, ptr %9, align 8
  %57 = load ptr, ptr %9, align 8
  %58 = load i32, ptr @hf_njack_tlv_type, align 4
  %59 = load ptr, ptr %4, align 8
  %60 = load i32, ptr %6, align 4
  %61 = call ptr @proto_tree_add_item(ptr noundef %57, i32 noundef %58, ptr noundef %59, i32 noundef %60, i32 noundef 1, i32 noundef 0)
  %62 = load i32, ptr %6, align 4
  %63 = add i32 %62, 1
  store i32 %63, ptr %6, align 4
  %64 = load ptr, ptr %9, align 8
  %65 = load i32, ptr @hf_njack_tlv_length, align 4
  %66 = load ptr, ptr %4, align 8
  %67 = load i32, ptr %6, align 4
  %68 = call ptr @proto_tree_add_item(ptr noundef %64, i32 noundef %65, ptr noundef %66, i32 noundef %67, i32 noundef 1, i32 noundef 0)
  %69 = load i32, ptr %6, align 4
  %70 = add i32 %69, 1
  store i32 %70, ptr %6, align 4
  %71 = load i8, ptr %7, align 1
  %72 = zext i8 %71 to i32
  switch i32 %72, label %187 [
    i32 0, label %204
    i32 6, label %73
    i32 10, label %81
    i32 11, label %89
    i32 12, label %97
    i32 5, label %105
    i32 26, label %113
    i32 30, label %121
    i32 31, label %129
    i32 1, label %137
    i32 15, label %145
    i32 2, label %153
    i32 3, label %153
    i32 4, label %153
    i32 32, label %153
    i32 13, label %161
    i32 14, label %161
    i32 25, label %161
    i32 27, label %161
    i32 28, label %161
    i32 37, label %161
    i32 42, label %161
    i32 43, label %161
    i32 19, label %173
    i32 20, label %173
    i32 21, label %173
    i32 22, label %173
  ]

73:                                               ; preds = %37
  %74 = load ptr, ptr %9, align 8
  %75 = load i32, ptr @hf_njack_tlv_countermode, align 4
  %76 = load ptr, ptr %4, align 8
  %77 = load i32, ptr %6, align 4
  %78 = call ptr @proto_tree_add_item(ptr noundef %74, i32 noundef %75, ptr noundef %76, i32 noundef %77, i32 noundef 1, i32 noundef 0)
  %79 = load i32, ptr %6, align 4
  %80 = add i32 %79, 1
  store i32 %80, ptr %6, align 4
  br label %204

81:                                               ; preds = %37
  %82 = load ptr, ptr %9, align 8
  %83 = load i32, ptr @hf_njack_tlv_scheduling, align 4
  %84 = load ptr, ptr %4, align 8
  %85 = load i32, ptr %6, align 4
  %86 = call ptr @proto_tree_add_item(ptr noundef %82, i32 noundef %83, ptr noundef %84, i32 noundef %85, i32 noundef 1, i32 noundef 0)
  %87 = load i32, ptr %6, align 4
  %88 = add i32 %87, 1
  store i32 %88, ptr %6, align 4
  br label %204

89:                                               ; preds = %37
  %90 = load ptr, ptr %9, align 8
  %91 = load i32, ptr @hf_njack_tlv_addtagscheme, align 4
  %92 = load ptr, ptr %4, align 8
  %93 = load i32, ptr %6, align 4
  %94 = call ptr @proto_tree_add_item(ptr noundef %90, i32 noundef %91, ptr noundef %92, i32 noundef %93, i32 noundef 1, i32 noundef 0)
  %95 = load i32, ptr %6, align 4
  %96 = add i32 %95, 1
  store i32 %96, ptr %6, align 4
  br label %204

97:                                               ; preds = %37
  %98 = load ptr, ptr %9, align 8
  %99 = load i32, ptr @hf_njack_tlv_portingressmode, align 4
  %100 = load ptr, ptr %4, align 8
  %101 = load i32, ptr %6, align 4
  %102 = call ptr @proto_tree_add_item(ptr noundef %98, i32 noundef %99, ptr noundef %100, i32 noundef %101, i32 noundef 1, i32 noundef 0)
  %103 = load i32, ptr %6, align 4
  %104 = add i32 %103, 1
  store i32 %104, ptr %6, align 4
  br label %204

105:                                              ; preds = %37
  %106 = load ptr, ptr %9, align 8
  %107 = load i32, ptr @hf_njack_tlv_maxframesize, align 4
  %108 = load ptr, ptr %4, align 8
  %109 = load i32, ptr %6, align 4
  %110 = call ptr @proto_tree_add_item(ptr noundef %106, i32 noundef %107, ptr noundef %108, i32 noundef %109, i32 noundef 1, i32 noundef 0)
  %111 = load i32, ptr %6, align 4
  %112 = add i32 %111, 1
  store i32 %112, ptr %6, align 4
  br label %204

113:                                              ; preds = %37
  %114 = load ptr, ptr %9, align 8
  %115 = load i32, ptr @hf_njack_tlv_snmpwrite, align 4
  %116 = load ptr, ptr %4, align 8
  %117 = load i32, ptr %6, align 4
  %118 = call ptr @proto_tree_add_item(ptr noundef %114, i32 noundef %115, ptr noundef %116, i32 noundef %117, i32 noundef 1, i32 noundef 0)
  %119 = load i32, ptr %6, align 4
  %120 = add i32 %119, 1
  store i32 %120, ptr %6, align 4
  br label %204

121:                                              ; preds = %37
  %122 = load ptr, ptr %9, align 8
  %123 = load i32, ptr @hf_njack_tlv_powerforwarding, align 4
  %124 = load ptr, ptr %4, align 8
  %125 = load i32, ptr %6, align 4
  %126 = call ptr @proto_tree_add_item(ptr noundef %122, i32 noundef %123, ptr noundef %124, i32 noundef %125, i32 noundef 1, i32 noundef 0)
  %127 = load i32, ptr %6, align 4
  %128 = add i32 %127, 1
  store i32 %128, ptr %6, align 4
  br label %204

129:                                              ; preds = %37
  %130 = load ptr, ptr %9, align 8
  %131 = load i32, ptr @hf_njack_tlv_dhcpcontrol, align 4
  %132 = load ptr, ptr %4, align 8
  %133 = load i32, ptr %6, align 4
  %134 = call ptr @proto_tree_add_item(ptr noundef %130, i32 noundef %131, ptr noundef %132, i32 noundef %133, i32 noundef 1, i32 noundef 0)
  %135 = load i32, ptr %6, align 4
  %136 = add i32 %135, 1
  store i32 %136, ptr %6, align 4
  br label %204

137:                                              ; preds = %37
  %138 = load ptr, ptr %9, align 8
  %139 = load i32, ptr @hf_njack_tlv_devicemac, align 4
  %140 = load ptr, ptr %4, align 8
  %141 = load i32, ptr %6, align 4
  %142 = call ptr @proto_tree_add_item(ptr noundef %138, i32 noundef %139, ptr noundef %140, i32 noundef %141, i32 noundef 6, i32 noundef 0)
  %143 = load i32, ptr %6, align 4
  %144 = add i32 %143, 6
  store i32 %144, ptr %6, align 4
  br label %204

145:                                              ; preds = %37
  %146 = load ptr, ptr %9, align 8
  %147 = load i32, ptr @hf_njack_tlv_version, align 4
  %148 = load ptr, ptr %4, align 8
  %149 = load i32, ptr %6, align 4
  %150 = call ptr @proto_tree_add_item(ptr noundef %146, i32 noundef %147, ptr noundef %148, i32 noundef %149, i32 noundef 4, i32 noundef -2147483648)
  %151 = load i32, ptr %6, align 4
  %152 = add i32 %151, 4
  store i32 %152, ptr %6, align 4
  br label %204

153:                                              ; preds = %37, %37, %37, %37
  %154 = load ptr, ptr %9, align 8
  %155 = load i32, ptr @hf_njack_tlv_typeip, align 4
  %156 = load ptr, ptr %4, align 8
  %157 = load i32, ptr %6, align 4
  %158 = call ptr @proto_tree_add_item(ptr noundef %154, i32 noundef %155, ptr noundef %156, i32 noundef %157, i32 noundef 4, i32 noundef 0)
  %159 = load i32, ptr %6, align 4
  %160 = add i32 %159, 4
  store i32 %160, ptr %6, align 4
  br label %204

161:                                              ; preds = %37, %37, %37, %37, %37, %37, %37, %37
  %162 = load ptr, ptr %9, align 8
  %163 = load i32, ptr @hf_njack_tlv_typestring, align 4
  %164 = load ptr, ptr %4, align 8
  %165 = load i32, ptr %6, align 4
  %166 = load i8, ptr %8, align 1
  %167 = zext i8 %166 to i32
  %168 = call ptr @proto_tree_add_item(ptr noundef %162, i32 noundef %163, ptr noundef %164, i32 noundef %165, i32 noundef %167, i32 noundef 0)
  %169 = load i8, ptr %8, align 1
  %170 = zext i8 %169 to i32
  %171 = load i32, ptr %6, align 4
  %172 = add i32 %171, %170
  store i32 %172, ptr %6, align 4
  br label %204

173:                                              ; preds = %37, %37, %37, %37
  %174 = load i8, ptr %8, align 1
  %175 = zext i8 %174 to i32
  %176 = icmp eq i32 %175, 8
  br i1 %176, label %177, label %182

177:                                              ; preds = %173
  %178 = load ptr, ptr %4, align 8
  %179 = load ptr, ptr %9, align 8
  %180 = load i32, ptr %6, align 4
  %181 = call i32 @dissect_portsettings(ptr noundef %178, ptr noundef %179, i32 noundef %180)
  br label %182

182:                                              ; preds = %177, %173
  %183 = load i8, ptr %8, align 1
  %184 = zext i8 %183 to i32
  %185 = load i32, ptr %6, align 4
  %186 = add i32 %185, %184
  store i32 %186, ptr %6, align 4
  br label %204

187:                                              ; preds = %37
  %188 = load i8, ptr %8, align 1
  %189 = zext i8 %188 to i32
  %190 = icmp ne i32 %189, 0
  br i1 %190, label %191, label %203

191:                                              ; preds = %187
  %192 = load ptr, ptr %9, align 8
  %193 = load i32, ptr @hf_njack_tlv_data, align 4
  %194 = load ptr, ptr %4, align 8
  %195 = load i32, ptr %6, align 4
  %196 = load i8, ptr %8, align 1
  %197 = zext i8 %196 to i32
  %198 = call ptr @proto_tree_add_item(ptr noundef %192, i32 noundef %193, ptr noundef %194, i32 noundef %195, i32 noundef %197, i32 noundef 0)
  %199 = load i8, ptr %8, align 1
  %200 = zext i8 %199 to i32
  %201 = load i32, ptr %6, align 4
  %202 = add i32 %201, %200
  store i32 %202, ptr %6, align 4
  br label %203

203:                                              ; preds = %191, %187
  br label %204

204:                                              ; preds = %203, %182, %161, %153, %145, %37, %137, %129, %121, %113, %105, %97, %89, %81, %73
  br label %10

205:                                              ; preds = %17
  %206 = load i32, ptr %6, align 4
  call void @llvm.lifetime.end.p0(i64 8, ptr %9) #3
  call void @llvm.lifetime.end.p0(i64 1, ptr %8) #3
  call void @llvm.lifetime.end.p0(i64 1, ptr %7) #3
  ret i32 %206
}