; Function Attrs: null_pointer_is_valid sspstrong uwtable
define internal fastcc noundef i32 @dissect_tlvs(ptr noundef %0, ptr noundef %1, i32 noundef range(i32 6, 29) %2) unnamed_addr #0 {
  br label %.backedge

.backedge:                                        ; preds = %.backedge.backedge, %3
  %.0 = phi i32 [ %2, %3 ], [ %.0.be, %.backedge.backedge ]
  %4 = tail call zeroext i8 @tvb_get_uint8(ptr noundef %0, i32 noundef %.0)
  switch i8 %4, label %13 [
    i8 -1, label %5
    i8 99, label %9
  ]

5:                                                ; preds = %.backedge
  %6 = load i32, ptr @hf_njack_tlv_type, align 4
  %7 = tail call ptr @proto_tree_add_item(ptr noundef %1, i32 noundef %6, ptr noundef %0, i32 noundef %.0, i32 noundef 1, i32 noundef 0)
  %8 = add i32 %.0, 1
  ret i32 %8

9:                                                ; preds = %.backedge
  %10 = load i32, ptr @hf_njack_tlv_type, align 4
  %11 = tail call ptr @proto_tree_add_item(ptr noundef %1, i32 noundef %10, ptr noundef %0, i32 noundef %.0, i32 noundef 1, i32 noundef 0)
  %12 = add i32 %.0, 1
  br label %.backedge.backedge

13:                                               ; preds = %.backedge
  %14 = zext i8 %4 to i32
  %15 = add i32 %.0, 1
  %16 = tail call zeroext i8 @tvb_get_uint8(ptr noundef %0, i32 noundef %15)
  %17 = zext i8 %16 to i32
  %18 = add nuw nsw i32 %17, 2
  %19 = load i32, ptr @ett_njack_tlv_header, align 4
  %20 = tail call ptr @val_to_str_ext_const(i32 noundef %14, ptr noundef nonnull @njack_cmd_vals_ext, ptr noundef nonnull @.str.131)
  %21 = tail call ptr (ptr, ptr, i32, i32, i32, ptr, ptr, ...) @proto_tree_add_subtree_format(ptr noundef %1, ptr noundef %0, i32 noundef %.0, i32 noundef %18, i32 noundef %19, ptr noundef null, ptr noundef nonnull @.str.130, i32 noundef %14, i32 noundef %17, ptr noundef %20)
  %22 = load i32, ptr @hf_njack_tlv_type, align 4
  %23 = tail call ptr @proto_tree_add_item(ptr noundef %21, i32 noundef %22, ptr noundef %0, i32 noundef %.0, i32 noundef 1, i32 noundef 0)
  %24 = load i32, ptr @hf_njack_tlv_length, align 4
  %25 = tail call ptr @proto_tree_add_item(ptr noundef %21, i32 noundef %24, ptr noundef %0, i32 noundef %15, i32 noundef 1, i32 noundef 0)
  %26 = add i32 %.0, 2
  switch i8 %4, label %82 [
    i8 0, label %.backedge.backedge
    i8 6, label %27
    i8 10, label %31
    i8 11, label %35
    i8 12, label %39
    i8 5, label %43
    i8 26, label %47
    i8 30, label %51
    i8 31, label %55
    i8 1, label %59
    i8 15, label %63
    i8 2, label %67
    i8 3, label %67
    i8 4, label %67
    i8 32, label %67
    i8 13, label %71
    i8 14, label %71
    i8 25, label %71
    i8 27, label %71
    i8 28, label %71
    i8 37, label %71
    i8 42, label %71
    i8 43, label %71
    i8 19, label %75
    i8 20, label %75
    i8 21, label %75
    i8 22, label %75
  ]

.backedge.backedge:                               ; preds = %13, %27, %31, %35, %39, %43, %47, %51, %55, %59, %63, %67, %71, %80, %83, %82, %9
  %.0.be = phi i32 [ %12, %9 ], [ %86, %83 ], [ %26, %82 ], [ %81, %80 ], [ %74, %71 ], [ %70, %67 ], [ %66, %63 ], [ %62, %59 ], [ %58, %55 ], [ %54, %51 ], [ %50, %47 ], [ %46, %43 ], [ %42, %39 ], [ %38, %35 ], [ %34, %31 ], [ %30, %27 ], [ %26, %13 ]
  br label %.backedge

27:                                               ; preds = %13
  %28 = load i32, ptr @hf_njack_tlv_countermode, align 4
  %29 = tail call ptr @proto_tree_add_item(ptr noundef %21, i32 noundef %28, ptr noundef %0, i32 noundef %26, i32 noundef 1, i32 noundef 0)
  %30 = add i32 %.0, 3
  br label %.backedge.backedge

31:                                               ; preds = %13
  %32 = load i32, ptr @hf_njack_tlv_scheduling, align 4
  %33 = tail call ptr @proto_tree_add_item(ptr noundef %21, i32 noundef %32, ptr noundef %0, i32 noundef %26, i32 noundef 1, i32 noundef 0)
  %34 = add i32 %.0, 3
  br label %.backedge.backedge

35:                                               ; preds = %13
  %36 = load i32, ptr @hf_njack_tlv_addtagscheme, align 4
  %37 = tail call ptr @proto_tree_add_item(ptr noundef %21, i32 noundef %36, ptr noundef %0, i32 noundef %26, i32 noundef 1, i32 noundef 0)
  %38 = add i32 %.0, 3
  br label %.backedge.backedge

39:                                               ; preds = %13
  %40 = load i32, ptr @hf_njack_tlv_portingressmode, align 4
  %41 = tail call ptr @proto_tree_add_item(ptr noundef %21, i32 noundef %40, ptr noundef %0, i32 noundef %26, i32 noundef 1, i32 noundef 0)
  %42 = add i32 %.0, 3
  br label %.backedge.backedge

43:                                               ; preds = %13
  %44 = load i32, ptr @hf_njack_tlv_maxframesize, align 4
  %45 = tail call ptr @proto_tree_add_item(ptr noundef %21, i32 noundef %44, ptr noundef %0, i32 noundef %26, i32 noundef 1, i32 noundef 0)
  %46 = add i32 %.0, 3
  br label %.backedge.backedge

47:                                               ; preds = %13
  %48 = load i32, ptr @hf_njack_tlv_snmpwrite, align 4
  %49 = tail call ptr @proto_tree_add_item(ptr noundef %21, i32 noundef %48, ptr noundef %0, i32 noundef %26, i32 noundef 1, i32 noundef 0)
  %50 = add i32 %.0, 3
  br label %.backedge.backedge

51:                                               ; preds = %13
  %52 = load i32, ptr @hf_njack_tlv_powerforwarding, align 4
  %53 = tail call ptr @proto_tree_add_item(ptr noundef %21, i32 noundef %52, ptr noundef %0, i32 noundef %26, i32 noundef 1, i32 noundef 0)
  %54 = add i32 %.0, 3
  br label %.backedge.backedge

55:                                               ; preds = %13
  %56 = load i32, ptr @hf_njack_tlv_dhcpcontrol, align 4
  %57 = tail call ptr @proto_tree_add_item(ptr noundef %21, i32 noundef %56, ptr noundef %0, i32 noundef %26, i32 noundef 1, i32 noundef 0)
  %58 = add i32 %.0, 3
  br label %.backedge.backedge

59:                                               ; preds = %13
  %60 = load i32, ptr @hf_njack_tlv_devicemac, align 4
  %61 = tail call ptr @proto_tree_add_item(ptr noundef %21, i32 noundef %60, ptr noundef %0, i32 noundef %26, i32 noundef 6, i32 noundef 0)
  %62 = add i32 %.0, 8
  br label %.backedge.backedge

63:                                               ; preds = %13
  %64 = load i32, ptr @hf_njack_tlv_version, align 4
  %65 = tail call ptr @proto_tree_add_item(ptr noundef %21, i32 noundef %64, ptr noundef %0, i32 noundef %26, i32 noundef 4, i32 noundef -2147483648)
  %66 = add i32 %.0, 6
  br label %.backedge.backedge

67:                                               ; preds = %13, %13, %13, %13
  %68 = load i32, ptr @hf_njack_tlv_typeip, align 4
  %69 = tail call ptr @proto_tree_add_item(ptr noundef %21, i32 noundef %68, ptr noundef %0, i32 noundef %26, i32 noundef 4, i32 noundef 0)
  %70 = add i32 %.0, 6
  br label %.backedge.backedge

71:                                               ; preds = %13, %13, %13, %13, %13, %13, %13, %13
  %72 = load i32, ptr @hf_njack_tlv_typestring, align 4
  %73 = tail call ptr @proto_tree_add_item(ptr noundef %21, i32 noundef %72, ptr noundef %0, i32 noundef %26, i32 noundef %17, i32 noundef 0)
  %74 = add i32 %26, %17
  br label %.backedge.backedge

75:                                               ; preds = %13, %13, %13, %13
  %76 = icmp eq i8 %16, 8
  br i1 %76, label %77, label %80

77:                                               ; preds = %75
  %78 = load i32, ptr @hf_njack_tlv_data, align 4
  %79 = tail call ptr @proto_tree_add_item(ptr noundef %21, i32 noundef %78, ptr noundef %0, i32 noundef %26, i32 noundef 8, i32 noundef 0)
  br label %80

80:                                               ; preds = %77, %75
  %81 = add i32 %26, %17
  br label %.backedge.backedge

82:                                               ; preds = %13
  %.not = icmp eq i8 %16, 0
  br i1 %.not, label %.backedge.backedge, label %83

83:                                               ; preds = %82
  %84 = load i32, ptr @hf_njack_tlv_data, align 4
  %85 = tail call ptr @proto_tree_add_item(ptr noundef %21, i32 noundef %84, ptr noundef %0, i32 noundef %26, i32 noundef %17, i32 noundef 0)
  %86 = add i32 %26, %17
  br label %.backedge.backedge
}